EXPORTS
	_ZN10QBtAddress25convertToSymbianBtDevAddrEv @ 1 NONAME
	_ZN10QBtAddress27getAddressFromReversedArrayERK10QByteArray @ 2 NONAME
	_ZN10QBtAddressC1ERK10QByteArray @ 3 NONAME
	_ZN10QBtAddressC1ERK10TBTDevAddr @ 4 NONAME
	_ZN10QBtAddressC1ERK7QString @ 5 NONAME
	_ZN10QBtAddressC1Ev @ 6 NONAME
	_ZN10QBtAddressC2ERK10QByteArray @ 7 NONAME
	_ZN10QBtAddressC2ERK10TBTDevAddr @ 8 NONAME
	_ZN10QBtAddressC2ERK7QString @ 9 NONAME
	_ZN10QBtAddressC2Ev @ 10 NONAME
	_ZN10QBtAddressD1Ev @ 11 NONAME
	_ZN10QBtAddressD2Ev @ 12 NONAME
	_ZN10QBtAddresseqERKS_ @ 13 NONAME
	_ZN10QBtAddressltERKS_ @ 14 NONAME
	_ZN10QBtAddressneERKS_ @ 15 NONAME
	_ZN10QBtService11addProtocolERK7QBtUuid @ 16 NONAME
	_ZN10QBtService12setProtocolsERK5QListI7QBtUuidE @ 17 NONAME
	_ZN10QBtService14removeProtocolERK7QBtUuid @ 18 NONAME
	_ZN10QBtService14setDescriptionERK7QString @ 19 NONAME
	_ZN10QBtService7setNameERK7QString @ 20 NONAME
	_ZN10QBtService7setPortEj @ 21 NONAME
	_ZN10QBtService8setClassERK7QBtUuid @ 22 NONAME
	_ZN10QBtService9setHandleEj @ 23 NONAME
	_ZN10QBtServiceC1Ev @ 24 NONAME
	_ZN10QBtServiceC2Ev @ 25 NONAME
	_ZN14QBtLocalDevice10setVisibleEb @ 26 NONAME
	_ZN14QBtLocalDevice11qt_metacallEN11QMetaObject4CallEiPPv @ 27 NONAME
	_ZN14QBtLocalDevice11qt_metacastEPKc @ 28 NONAME
	_ZN14QBtLocalDevice12addNewDeviceERK9QBtDevice @ 29 NONAME
	_ZN14QBtLocalDevice12deleteDeviceERK10QBtAddress @ 30 NONAME
	_ZN14QBtLocalDevice12deleteDeviceERK9QBtDevice @ 31 NONAME
	_ZN14QBtLocalDevice12unpairDeviceERK10QBtAddress @ 32 NONAME
	_ZN14QBtLocalDevice12unpairDeviceERK9QBtDevice @ 33 NONAME
	_ZN14QBtLocalDevice14getDeviceClassEv @ 34 NONAME
	_ZN14QBtLocalDevice14setDeviceClassEN9QBtDevice11DeviceMajorE @ 35 NONAME
	_ZN14QBtLocalDevice16staticMetaObjectE @ 36 NONAME DATA 16
	_ZN14QBtLocalDevice18getLocalDeviceNameEv @ 37 NONAME
	_ZN14QBtLocalDevice18setLocalDeviceNameERK7QString @ 38 NONAME
	_ZN14QBtLocalDevice19getStaticMetaObjectEv @ 39 NONAME
	_ZN14QBtLocalDevice20askUserTurnOnBtPowerEv @ 40 NONAME
	_ZN14QBtLocalDevice20isBluetoothSupportedEv @ 41 NONAME
	_ZN14QBtLocalDevice21getLocalDeviceAddressEv @ 42 NONAME
	_ZN14QBtLocalDevice22getBluetoothPowerStateEv @ 43 NONAME
	_ZN14QBtLocalDevice22setBluetoothPowerStateEb @ 44 NONAME
	_ZN14QBtLocalDevice9isVisibleEv @ 45 NONAME
	_ZN19QBtDeviceDiscoverer11qt_metacallEN11QMetaObject4CallEiPPv @ 46 NONAME
	_ZN19QBtDeviceDiscoverer11qt_metacastEPKc @ 47 NONAME
	_ZN19QBtDeviceDiscoverer13stopDiscoveryEv @ 48 NONAME
	_ZN19QBtDeviceDiscoverer14newDeviceFoundERK9QBtDevice @ 49 NONAME
	_ZN19QBtDeviceDiscoverer14startDiscoveryEv @ 50 NONAME
	_ZN19QBtDeviceDiscoverer16discoveryStartedEv @ 51 NONAME
	_ZN19QBtDeviceDiscoverer16discoveryStoppedEv @ 52 NONAME
	_ZN19QBtDeviceDiscoverer16staticMetaObjectE @ 53 NONAME DATA 16
	_ZN19QBtDeviceDiscoverer19getStaticMetaObjectEv @ 54 NONAME
	_ZN19QBtDeviceDiscoverer5errorENS_21DeviceDiscoveryErrorsE @ 55 NONAME
	_ZN19QBtDeviceDiscovererC1EP7QObject @ 56 NONAME
	_ZN19QBtDeviceDiscovererC2EP7QObject @ 57 NONAME
	_ZN19QBtDeviceDiscovererD0Ev @ 58 NONAME
	_ZN19QBtDeviceDiscovererD1Ev @ 59 NONAME
	_ZN19QBtDeviceDiscovererD2Ev @ 60 NONAME
	_ZN19QBtSerialPortClient10disconnectEv @ 61 NONAME
	_ZN19QBtSerialPortClient11isConnectedEv @ 62 NONAME
	_ZN19QBtSerialPortClient11qt_metacallEN11QMetaObject4CallEiPPv @ 63 NONAME
	_ZN19QBtSerialPortClient11qt_metacastEPKc @ 64 NONAME
	_ZN19QBtSerialPortClient12dataReceivedERK7QString @ 65 NONAME
	_ZN19QBtSerialPortClient16staticMetaObjectE @ 66 NONAME DATA 16
	_ZN19QBtSerialPortClient17connectedToServerEv @ 67 NONAME
	_ZN19QBtSerialPortClient19getStaticMetaObjectEv @ 68 NONAME
	_ZN19QBtSerialPortClient21connectionResetByPeerEv @ 69 NONAME
	_ZN19QBtSerialPortClient22disconnectedFromServerEv @ 70 NONAME
	_ZN19QBtSerialPortClient5errorENS_9ErrorCodeE @ 71 NONAME
	_ZN19QBtSerialPortClient7connectERK9QBtDeviceRK10QBtService @ 72 NONAME
	_ZN19QBtSerialPortClient8dataSentEv @ 73 NONAME
	_ZN19QBtSerialPortClient8sendDataERK10QByteArray @ 74 NONAME
	_ZN19QBtSerialPortClient8sendDataERK7QString @ 75 NONAME
	_ZN19QBtSerialPortClientC1EP7QObject @ 76 NONAME
	_ZN19QBtSerialPortClientC2EP7QObject @ 77 NONAME
	_ZN19QBtSerialPortClientD0Ev @ 78 NONAME
	_ZN19QBtSerialPortClientD1Ev @ 79 NONAME
	_ZN19QBtSerialPortClientD2Ev @ 80 NONAME
	_ZN19QBtSerialPortServer10stopServerEv @ 81 NONAME
	_ZN19QBtSerialPortServer11isConnectedEv @ 82 NONAME
	_ZN19QBtSerialPortServer11qt_metacallEN11QMetaObject4CallEiPPv @ 83 NONAME
	_ZN19QBtSerialPortServer11qt_metacastEPKc @ 84 NONAME
	_ZN19QBtSerialPortServer11startServerERK7QBtUuidRK7QString @ 85 NONAME
	_ZN19QBtSerialPortServer12dataReceivedERK7QString @ 86 NONAME
	_ZN19QBtSerialPortServer13serverStartedEv @ 87 NONAME
	_ZN19QBtSerialPortServer13serverStoppedEv @ 88 NONAME
	_ZN19QBtSerialPortServer15clientConnectedERK10QBtAddress @ 89 NONAME
	_ZN19QBtSerialPortServer16staticMetaObjectE @ 90 NONAME DATA 16
	_ZN19QBtSerialPortServer18clientDisconnectedEv @ 91 NONAME
	_ZN19QBtSerialPortServer19getStaticMetaObjectEv @ 92 NONAME
	_ZN19QBtSerialPortServer19setConnectionStatusEb @ 93 NONAME
	_ZN19QBtSerialPortServer22setTransmittingServiceERK10QBtService @ 94 NONAME
	_ZN19QBtSerialPortServer22stopAdvertisingServiceEv @ 95 NONAME
	_ZN19QBtSerialPortServer23startAdvertisingServiceERK10QBtService @ 96 NONAME
	_ZN19QBtSerialPortServer5errorENS_9ErrorCodeE @ 97 NONAME
	_ZN19QBtSerialPortServer8dataSentEv @ 98 NONAME
	_ZN19QBtSerialPortServer8sendDataERK7QString @ 99 NONAME
	_ZN19QBtSerialPortServerC1EP7QObject @ 100 NONAME
	_ZN19QBtSerialPortServerC2EP7QObject @ 101 NONAME
	_ZN19QBtSerialPortServerD0Ev @ 102 NONAME
	_ZN19QBtSerialPortServerD1Ev @ 103 NONAME
	_ZN19QBtSerialPortServerD2Ev @ 104 NONAME
	_ZN20QBtServiceAdvertiser11qt_metacallEN11QMetaObject4CallEiPPv @ 105 NONAME
	_ZN20QBtServiceAdvertiser11qt_metacastEPKc @ 106 NONAME
	_ZN20QBtServiceAdvertiser15stopAdvertisingEv @ 107 NONAME
	_ZN20QBtServiceAdvertiser16startAdvertisingERK10QBtService @ 108 NONAME
	_ZN20QBtServiceAdvertiser16staticMetaObjectE @ 109 NONAME DATA 16
	_ZN20QBtServiceAdvertiser18advertisingStartedERK10QBtService @ 110 NONAME
	_ZN20QBtServiceAdvertiser18advertisingStoppedEv @ 111 NONAME
	_ZN20QBtServiceAdvertiser18updateAvailabilityEb @ 112 NONAME
	_ZN20QBtServiceAdvertiser19getStaticMetaObjectEv @ 113 NONAME
	_ZN20QBtServiceAdvertiser5errorENS_10ErrorCodesE @ 114 NONAME
	_ZN20QBtServiceAdvertiserC1EP7QObject @ 115 NONAME
	_ZN20QBtServiceAdvertiserC2EP7QObject @ 116 NONAME
	_ZN20QBtServiceAdvertiserD0Ev @ 117 NONAME
	_ZN20QBtServiceAdvertiserD1Ev @ 118 NONAME
	_ZN20QBtServiceAdvertiserD2Ev @ 119 NONAME
	_ZN20QBtServiceDiscoverer11qt_metacallEN11QMetaObject4CallEiPPv @ 120 NONAME
	_ZN20QBtServiceDiscoverer11qt_metacastEPKc @ 121 NONAME
	_ZN20QBtServiceDiscoverer13stopDiscoveryEv @ 122 NONAME
	_ZN20QBtServiceDiscoverer14startDiscoveryERK9QBtDevice @ 123 NONAME
	_ZN20QBtServiceDiscoverer14startDiscoveryERK9QBtDeviceRK5QListI7QBtUuidE @ 124 NONAME
	_ZN20QBtServiceDiscoverer14startDiscoveryERK9QBtDeviceRK7QBtUuid @ 125 NONAME
	_ZN20QBtServiceDiscoverer15newServiceFoundERK9QBtDeviceRK10QBtService @ 126 NONAME
	_ZN20QBtServiceDiscoverer16discoveryStartedEv @ 127 NONAME
	_ZN20QBtServiceDiscoverer16discoveryStoppedEv @ 128 NONAME
	_ZN20QBtServiceDiscoverer16staticMetaObjectE @ 129 NONAME DATA 16
	_ZN20QBtServiceDiscoverer18startObexDiscoveryERK9QBtDevice @ 130 NONAME
	_ZN20QBtServiceDiscoverer19getInquiredServicesEv @ 131 NONAME
	_ZN20QBtServiceDiscoverer19getStaticMetaObjectEv @ 132 NONAME
	_ZN20QBtServiceDiscoverer20startRfcommDiscoveryERK9QBtDevice @ 133 NONAME
	_ZN20QBtServiceDiscoverer5errorENS_21ServiceDiscoveryErrorE @ 134 NONAME
	_ZN20QBtServiceDiscovererC1EP7QObject @ 135 NONAME
	_ZN20QBtServiceDiscovererC2EP7QObject @ 136 NONAME
	_ZN20QBtServiceDiscovererD0Ev @ 137 NONAME
	_ZN20QBtServiceDiscovererD1Ev @ 138 NONAME
	_ZN20QBtServiceDiscovererD2Ev @ 139 NONAME
	_ZN23QBtObjectExchangeClient10disconnectEv @ 140 NONAME
	_ZN23QBtObjectExchangeClient10objectSentEv @ 141 NONAME
	_ZN23QBtObjectExchangeClient11qt_metacallEN11QMetaObject4CallEiPPv @ 142 NONAME
	_ZN23QBtObjectExchangeClient11qt_metacastEPKc @ 143 NONAME
	_ZN23QBtObjectExchangeClient12dataReceivedERK10QByteArray @ 144 NONAME
	_ZN23QBtObjectExchangeClient12fileReceivedERK7QString @ 145 NONAME
	_ZN23QBtObjectExchangeClient13getByteBufferERK7QString @ 146 NONAME
	_ZN23QBtObjectExchangeClient13putByteBufferERK10QByteArrayRK7QString @ 147 NONAME
	_ZN23QBtObjectExchangeClient13remotePathSetERK7QString @ 148 NONAME
	_ZN23QBtObjectExchangeClient15connectToServerERK9QBtDeviceRK10QBtService @ 149 NONAME
	_ZN23QBtObjectExchangeClient16staticMetaObjectE @ 150 NONAME DATA 16
	_ZN23QBtObjectExchangeClient17connectedToServerEv @ 151 NONAME
	_ZN23QBtObjectExchangeClient19getStaticMetaObjectEv @ 152 NONAME
	_ZN23QBtObjectExchangeClient22disconnectedFromServerEv @ 153 NONAME
	_ZN23QBtObjectExchangeClient5abortEv @ 154 NONAME
	_ZN23QBtObjectExchangeClient5errorENS_9ErrorCodeE @ 155 NONAME
	_ZN23QBtObjectExchangeClient7getFileERK7QStringS2_ @ 156 NONAME
	_ZN23QBtObjectExchangeClient7putFileERK7QString @ 157 NONAME
	_ZN23QBtObjectExchangeClient7setPathERK7QString @ 158 NONAME
	_ZN23QBtObjectExchangeClientC1EP7QObject @ 159 NONAME
	_ZN23QBtObjectExchangeClientC2EP7QObject @ 160 NONAME
	_ZN23QBtObjectExchangeClientD0Ev @ 161 NONAME
	_ZN23QBtObjectExchangeClientD1Ev @ 162 NONAME
	_ZN23QBtObjectExchangeClientD2Ev @ 163 NONAME
	_ZN23QBtObjectExchangeServer10stopServerEv @ 164 NONAME
	_ZN23QBtObjectExchangeServer11isConnectedEv @ 165 NONAME
	_ZN23QBtObjectExchangeServer11qt_metacallEN11QMetaObject4CallEiPPv @ 166 NONAME
	_ZN23QBtObjectExchangeServer11qt_metacastEPKc @ 167 NONAME
	_ZN23QBtObjectExchangeServer11startServerERK7QBtUuidRK7QString @ 168 NONAME
	_ZN23QBtObjectExchangeServer13serverStartedEv @ 169 NONAME
	_ZN23QBtObjectExchangeServer13serverStoppedEv @ 170 NONAME
	_ZN23QBtObjectExchangeServer16receivingStartedEv @ 171 NONAME
	_ZN23QBtObjectExchangeServer16receivingStoppedERK7QString @ 172 NONAME
	_ZN23QBtObjectExchangeServer16staticMetaObjectE @ 173 NONAME DATA 16
	_ZN23QBtObjectExchangeServer19getStaticMetaObjectEv @ 174 NONAME
	_ZN23QBtObjectExchangeServer19receivingObjectInfoEii @ 175 NONAME
	_ZN23QBtObjectExchangeServer19transmittingStartedERK7QString @ 176 NONAME
	_ZN23QBtObjectExchangeServer19transmittingStoppedERK7QString @ 177 NONAME
	_ZN23QBtObjectExchangeServer20transmittingRejectedEv @ 178 NONAME
	_ZN23QBtObjectExchangeServer22setTransmittingServiceERK10QBtService @ 179 NONAME
	_ZN23QBtObjectExchangeServer22stopAdvertisingServiceEv @ 180 NONAME
	_ZN23QBtObjectExchangeServer22transmittingObjectInfoEii @ 181 NONAME
	_ZN23QBtObjectExchangeServer23startAdvertisingServiceERK10QBtService @ 182 NONAME
	_ZN23QBtObjectExchangeServer25clientAbortedTransmittionEv @ 183 NONAME
	_ZN23QBtObjectExchangeServer26getTransmittingServiceInfoEv @ 184 NONAME
	_ZN23QBtObjectExchangeServer5errorENS_9ErrorCodeE @ 185 NONAME
	_ZN23QBtObjectExchangeServerC1EP7QObject @ 186 NONAME
	_ZN23QBtObjectExchangeServerC2EP7QObject @ 187 NONAME
	_ZN23QBtObjectExchangeServerD0Ev @ 188 NONAME
	_ZN23QBtObjectExchangeServerD1Ev @ 189 NONAME
	_ZN23QBtObjectExchangeServerD2Ev @ 190 NONAME
	_ZN25QBtSingleDeviceSelectorUI11qt_metacallEN11QMetaObject4CallEiPPv @ 191 NONAME
	_ZN25QBtSingleDeviceSelectorUI11qt_metacastEPKc @ 192 NONAME
	_ZN25QBtSingleDeviceSelectorUI12userCanceledEv @ 193 NONAME
	_ZN25QBtSingleDeviceSelectorUI16discoveryStartedEv @ 194 NONAME
	_ZN25QBtSingleDeviceSelectorUI16staticMetaObjectE @ 195 NONAME DATA 16
	_ZN25QBtSingleDeviceSelectorUI18discoveryCompletedERK9QBtDevice @ 196 NONAME
	_ZN25QBtSingleDeviceSelectorUI19getStaticMetaObjectEv @ 197 NONAME
	_ZN25QBtSingleDeviceSelectorUI4showEv @ 198 NONAME
	_ZN25QBtSingleDeviceSelectorUIC1EP7QWidget @ 199 NONAME
	_ZN25QBtSingleDeviceSelectorUIC2EP7QWidget @ 200 NONAME
	_ZN25QBtSingleDeviceSelectorUID0Ev @ 201 NONAME
	_ZN25QBtSingleDeviceSelectorUID1Ev @ 202 NONAME
	_ZN25QBtSingleDeviceSelectorUID2Ev @ 203 NONAME
	_ZN26QBtServiceDiscovererForAll11qt_metacallEN11QMetaObject4CallEiPPv @ 204 NONAME
	_ZN26QBtServiceDiscovererForAll11qt_metacastEPKc @ 205 NONAME
	_ZN26QBtServiceDiscovererForAll13stopDiscoveryEv @ 206 NONAME
	_ZN26QBtServiceDiscovererForAll14discoveryEndedEv @ 207 NONAME
	_ZN26QBtServiceDiscovererForAll14newDeviceFoundERK9QBtDevice @ 208 NONAME
	_ZN26QBtServiceDiscovererForAll14startDiscoveryERK5QListI7QBtUuidE @ 209 NONAME
	_ZN26QBtServiceDiscovererForAll14startDiscoveryERK7QBtUuid @ 210 NONAME
	_ZN26QBtServiceDiscovererForAll14startDiscoveryEv @ 211 NONAME
	_ZN26QBtServiceDiscovererForAll15_startDiscoveryEv @ 212 NONAME
	_ZN26QBtServiceDiscovererForAll16discoveryStartedEv @ 213 NONAME
	_ZN26QBtServiceDiscovererForAll16staticMetaObjectE @ 214 NONAME DATA 16
	_ZN26QBtServiceDiscovererForAll17dd_discoveryEndedEv @ 215 NONAME
	_ZN26QBtServiceDiscovererForAll17dd_newDeviceFoundERK9QBtDevice @ 216 NONAME
	_ZN26QBtServiceDiscovererForAll18sd_newServiceFoundERK9QBtDeviceRK10QBtService @ 217 NONAME
	_ZN26QBtServiceDiscovererForAll18startObexDiscoveryEv @ 218 NONAME
	_ZN26QBtServiceDiscovererForAll19dd_discoveryStartedEv @ 219 NONAME
	_ZN26QBtServiceDiscovererForAll19getStaticMetaObjectEv @ 220 NONAME
	_ZN26QBtServiceDiscovererForAll20deviceDiscoveryErrorEN19QBtDeviceDiscoverer21DeviceDiscoveryErrorsE @ 221 NONAME
	_ZN26QBtServiceDiscovererForAll20serviceDiscoveyErrorERK9QBtDeviceN20QBtServiceDiscoverer21ServiceDiscoveryErrorE @ 222 NONAME
	_ZN26QBtServiceDiscovererForAll20startRfcommDiscoveryEv @ 223 NONAME
	_ZN26QBtServiceDiscovererForAll24sd_serviceDiscoveryEndedEv @ 224 NONAME
	_ZN26QBtServiceDiscovererForAll26sd_serviceDiscoveryStartedEv @ 225 NONAME
	_ZN26QBtServiceDiscovererForAll8dd_errorEN19QBtDeviceDiscoverer21DeviceDiscoveryErrorsE @ 226 NONAME
	_ZN26QBtServiceDiscovererForAll8sd_errorEN20QBtServiceDiscoverer21ServiceDiscoveryErrorE @ 227 NONAME
	_ZN26QBtServiceDiscovererForAllC1EP7QObject @ 228 NONAME
	_ZN26QBtServiceDiscovererForAllC2EP7QObject @ 229 NONAME
	_ZN26QBtServiceDiscovererForAllD0Ev @ 230 NONAME
	_ZN26QBtServiceDiscovererForAllD1Ev @ 231 NONAME
	_ZN26QBtServiceDiscovererForAllD2Ev @ 232 NONAME
	_ZN7QBtUuid3setERK7QString @ 233 NONAME
	_ZN7QBtUuid3setEj @ 234 NONAME
	_ZN7QBtUuid5clearEv @ 235 NONAME
	_ZN7QBtUuidC1ERK7QString @ 236 NONAME
	_ZN7QBtUuidC1Ej @ 237 NONAME
	_ZN7QBtUuidC1Ev @ 238 NONAME
	_ZN7QBtUuidC2ERK7QString @ 239 NONAME
	_ZN7QBtUuidC2Ej @ 240 NONAME
	_ZN7QBtUuidC2Ev @ 241 NONAME
	_ZN9QBtDevice10setAddressERK10QBtAddress @ 242 NONAME
	_ZN9QBtDevice13addNewServiceERK10QBtService @ 243 NONAME
	_ZN9QBtDevice20setSupportedServicesERK5QListI10QBtServiceE @ 244 NONAME
	_ZN9QBtDevice7setNameERK7QString @ 245 NONAME
	_ZN9QBtDevice7setTypeENS_11DeviceMajorE @ 246 NONAME
	_ZN9QBtDeviceC1ERK7QStringRK10QBtAddressNS_11DeviceMajorE @ 247 NONAME
	_ZN9QBtDeviceC1ERKS_ @ 248 NONAME
	_ZN9QBtDeviceC1Ev @ 249 NONAME
	_ZN9QBtDeviceC2ERK7QStringRK10QBtAddressNS_11DeviceMajorE @ 250 NONAME
	_ZN9QBtDeviceC2ERKS_ @ 251 NONAME
	_ZN9QBtDeviceC2Ev @ 252 NONAME
	_ZN9QBtDeviceD1Ev @ 253 NONAME
	_ZN9QBtDeviceD2Ev @ 254 NONAME
	_ZNK10QBtAddress11toByteArrayEv @ 255 NONAME
	_ZNK10QBtAddress19toReversedByteArrayEv @ 256 NONAME
	_ZNK10QBtAddress7isValidEv @ 257 NONAME
	_ZNK10QBtAddress8toStringEv @ 258 NONAME
	_ZNK10QBtService12getProtocolsEv @ 259 NONAME
	_ZNK10QBtService14getDescriptionEv @ 260 NONAME
	_ZNK10QBtService7getNameEv @ 261 NONAME
	_ZNK10QBtService7getPortEv @ 262 NONAME
	_ZNK10QBtService8getClassEv @ 263 NONAME
	_ZNK10QBtService9getHandleEv @ 264 NONAME
	_ZNK14QBtLocalDevice10metaObjectEv @ 265 NONAME
	_ZNK19QBtDeviceDiscoverer10metaObjectEv @ 266 NONAME
	_ZNK19QBtDeviceDiscoverer18getInquiredDevicesEv @ 267 NONAME
	_ZNK19QBtDeviceDiscoverer6isBusyEv @ 268 NONAME
	_ZNK19QBtSerialPortClient10metaObjectEv @ 269 NONAME
	_ZNK19QBtSerialPortServer10metaObjectEv @ 270 NONAME
	_ZNK19QBtSerialPortServer26getTransmittingServiceInfoEv @ 271 NONAME
	_ZNK20QBtServiceAdvertiser10metaObjectEv @ 272 NONAME
	_ZNK20QBtServiceDiscoverer10metaObjectEv @ 273 NONAME
	_ZNK20QBtServiceDiscoverer15getTargetDeviceEv @ 274 NONAME
	_ZNK20QBtServiceDiscoverer6isBusyEv @ 275 NONAME
	_ZNK23QBtObjectExchangeClient10metaObjectEv @ 276 NONAME
	_ZNK23QBtObjectExchangeClient11isConnectedEv @ 277 NONAME
	_ZNK23QBtObjectExchangeClient6isBusyEv @ 278 NONAME
	_ZNK23QBtObjectExchangeServer10metaObjectEv @ 279 NONAME
	_ZNK25QBtSingleDeviceSelectorUI10metaObjectEv @ 280 NONAME
	_ZNK26QBtServiceDiscovererForAll10metaObjectEv @ 281 NONAME
	_ZNK26QBtServiceDiscovererForAll12foundDevicesEv @ 282 NONAME
	_ZNK26QBtServiceDiscovererForAll13getDeviceListEv @ 283 NONAME
	_ZNK26QBtServiceDiscovererForAll23getNumberOfFoundDevicesEv @ 284 NONAME
	_ZNK26QBtServiceDiscovererForAll6isBusyEv @ 285 NONAME
	_ZNK7QBtUuid3getERjS0_S0_S0_ @ 286 NONAME
	_ZNK7QBtUuid3getEv @ 287 NONAME
	_ZNK7QBtUuid6isFullEv @ 288 NONAME
	_ZNK7QBtUuid6isNullEv @ 289 NONAME
	_ZNK7QBtUuid8toStringEv @ 290 NONAME
	_ZNK7QBtUuideqERKS_ @ 291 NONAME
	_ZNK7QBtUuidneERKS_ @ 292 NONAME
	_ZNK9QBtDevice10getAddressEv @ 293 NONAME
	_ZNK9QBtDevice15getTypeAsStringEv @ 294 NONAME
	_ZNK9QBtDevice18serviceListUpdatedEv @ 295 NONAME
	_ZNK9QBtDevice20getSupportedServicesEv @ 296 NONAME
	_ZNK9QBtDevice7getNameEv @ 297 NONAME
	_ZNK9QBtDevice7getTypeEv @ 298 NONAME
	_ZTI13StringVisitor @ 299 NONAME
	_ZTI14QBtLocalDevice @ 300 NONAME
	_ZTI18CBTDeviceFinderDlg @ 301 NONAME
	_ZTI18ServiceUuidVisitor @ 302 NONAME
	_ZTI19ProtocolListVisitor @ 303 NONAME
	_ZTI19QBtDeviceDiscoverer @ 304 NONAME
	_ZTI19QBtSerialPortClient @ 305 NONAME
	_ZTI19QBtSerialPortServer @ 306 NONAME
	_ZTI20QBtServiceAdvertiser @ 307 NONAME
	_ZTI20QBtServiceDiscoverer @ 308 NONAME
	_ZTI23QBtObjectExchangeClient @ 309 NONAME
	_ZTI23QBtObjectExchangeServer @ 310 NONAME
	_ZTI25QBtSingleDeviceSelectorUI @ 311 NONAME
	_ZTI26QBtDeviceDiscovererPrivate @ 312 NONAME
	_ZTI26QBtSerialPortClientPrivate @ 313 NONAME
	_ZTI26QBtSerialPortServerPrivate @ 314 NONAME
	_ZTI26QBtServiceDiscovererForAll @ 315 NONAME
	_ZTI27QBtServiceAdvertiserPrivate @ 316 NONAME
	_ZTI27QBtServiceDiscovererPrivate @ 317 NONAME
	_ZTI30QBtObjectExchangeClientPrivate @ 318 NONAME
	_ZTI30QBtObjectExchangeServerPrivate @ 319 NONAME
	_ZTI32QBtSingleDeviceSelectorUIPrivate @ 320 NONAME
	_ZTV13StringVisitor @ 321 NONAME
	_ZTV14QBtLocalDevice @ 322 NONAME
	_ZTV18CBTDeviceFinderDlg @ 323 NONAME
	_ZTV18ServiceUuidVisitor @ 324 NONAME
	_ZTV19ProtocolListVisitor @ 325 NONAME
	_ZTV19QBtDeviceDiscoverer @ 326 NONAME
	_ZTV19QBtSerialPortClient @ 327 NONAME
	_ZTV19QBtSerialPortServer @ 328 NONAME
	_ZTV20QBtServiceAdvertiser @ 329 NONAME
	_ZTV20QBtServiceDiscoverer @ 330 NONAME
	_ZTV23QBtObjectExchangeClient @ 331 NONAME
	_ZTV23QBtObjectExchangeServer @ 332 NONAME
	_ZTV25QBtSingleDeviceSelectorUI @ 333 NONAME
	_ZTV26QBtDeviceDiscovererPrivate @ 334 NONAME
	_ZTV26QBtSerialPortClientPrivate @ 335 NONAME
	_ZTV26QBtSerialPortServerPrivate @ 336 NONAME
	_ZTV26QBtServiceDiscovererForAll @ 337 NONAME
	_ZTV27QBtServiceAdvertiserPrivate @ 338 NONAME
	_ZTV27QBtServiceDiscovererPrivate @ 339 NONAME
	_ZTV30QBtObjectExchangeClientPrivate @ 340 NONAME
	_ZTV30QBtObjectExchangeServerPrivate @ 341 NONAME
	_ZTV32QBtSingleDeviceSelectorUIPrivate @ 342 NONAME

